ccollections
defaultdict
p0
(c__builtin__
list
p1
tp2
Rp3
(Vconfirmar
p4
Vconceito:Deus
p5
Vconceito:atributo
p6
Vconceito:homem
p7
Vconceito:ideia
p8
tp9
(lp10
S'13. Quando dizemos que Deus \xc3\xa9 eterno, infinito, imut\xc3\xa1vel, imaterial, \xc3\xbanico, onipotente, soberanamente justo e bom, temos ideia completa de seus atributos? Do vosso ponto de vista, sim, porque credes abranger tudo. Sabei, por\xc3\xa9m, que h\xc3\xa1 coisas que est\xc3\xa3o acima da intelig\xc3\xaancia do homem mais inteligente, as quais a vossa linguagem, restrita \xc3\xa0s vossas ideias e sensa\xc3\xa7\xc3\xb5es, n\xc3\xa3o tem meios de exprimir. 2\xc2\xa0A raz\xc3\xa3o, com efeito, vos diz que Deus deve possuir em grau supremo essas perfei\xc3\xa7\xc3\xb5es, porquanto, se uma lhe faltasse, ou n\xc3\xa3o fosse infinita, j\xc3\xa1 ele n\xc3\xa3o seria superior a tudo, n\xc3\xa3o seria, por conseguinte, Deus. 3\xc2\xa0Para estar acima de todas as coisas, Deus tem que se achar isento de qualquer vicissitude e de qualquer das imperfei\xc3\xa7\xc3\xb5es que a imagina\xc3\xa7\xc3\xa3o possa conceber.'
p11
as(g4
Vconceito:Deus
p12
Vqualidade:distinto
p13
tp14
(lp15
S'14. Deus \xc3\xa9 um ser distinto, ou ser\xc3\xa1, como opinam alguns, a resultante de todas as for\xc3\xa7as e de todas as intelig\xc3\xaancias do Universo reunidas? Se fosse assim, Deus n\xc3\xa3o existiria, porquanto seria efeito e n\xc3\xa3o causa. Ele n\xc3\xa3o pode ser ao mesmo tempo uma e outra coisa'
p16
as(g4
Vacaso
p17
Vcausa_primaria
p18
tp19
(lp20
S'8. Que se deve pensar da opini\xc3\xa3o dos que atribuem a forma\xc3\xa7\xc3\xa3o prim\xc3\xa1ria a uma combina\xc3\xa7\xc3\xa3o fortuita da mat\xc3\xa9ria, ou, por outra, ao acaso? Outro absurdo! Que homem de bom senso pode considerar o acaso um ser inteligente? E, demais, que \xc3\xa9 o acaso? Nada.'
p21
as(g4
Vacaso
p22
Vconceito:tudo
p23
tp24
(lp25
g21
as(Vdefinir
p26
Vconceito:panteismo
p27
tp28
(lp29
S'15. Que se deve pensar da opini\xc3\xa3o segundo a qual todos os corpos da Natureza, todos os seres, todos os globos do Universo seriam partes da Divindade e constituiriam, em conjunto, a pr\xc3\xb3pria Divindade, ou, por outra, que se deve pensar da doutrina pante\xc3\xadsta? N\xc3\xa3o podendo fazer-se Deus, o homem quer ao menos ser uma parte de Deus.'
p30
as(g26
Vcampo:existir
p31
Vcampo:sentir
p32
Vconceito:Deus
p33
tp34
(lp35
S'5. Que dedu\xc3\xa7\xc3\xa3o se pode tirar do sentimento instintivo, que todos os homens trazem em si, da exist\xc3\xaancia de Deus? A de que Deus existe; pois, donde lhes viria esse sentimento, se n\xc3\xa3o tivesse uma base? \xc3\x89 ainda uma consequ\xc3\xaancia do princ\xc3\xadpio \xe2\x80\x94 n\xc3\xa3o h\xc3\xa1 efeito sem causa.'
p36
as(g26
Vconceito:infinito
p37
tp38
(lp39
S'2. Que se deve entender por infinito? O que n\xc3\xa3o tem come\xc3\xa7o nem fim: o desconhecido; tudo o que \xc3\xa9 desconhecido \xc3\xa9 infinito.'
p40
as(g26
Vcausa_primaria
p41
Vinteligencia_divina
p42
tp43
(lp44
S'9. Em que \xc3\xa9 que, na causa prim\xc3\xa1ria, se revela uma intelig\xc3\xaancia suprema e superior a todas as intelig\xc3\xaancias? Tendes um prov\xc3\xa9rbio que diz: Pela obra se reconhece o autor. Pois bem! Vede a obra e procurai o autor. O orgulho \xc3\xa9 que gera a incredulidade. O homem orgulhoso nada admite acima de si. Por isso \xc3\xa9 que ele se denomina a si mesmo de esp\xc3\xadrito forte. Pobre ser, que um sopro de Deus pode abater!'
p45
as(g4
Vconceito:Deus
p46
Vconceito:infinito
p47
tp48
(lp49
S'3. Poder-se-ia dizer que Deus \xc3\xa9 o infinito? Defini\xc3\xa7\xc3\xa3o incompleta. Pobreza da linguagem humana, insuficiente para definir o que est\xc3\xa1 acima da linguagem dos homens.'
p50
as(g4
Vcampo:educar
p51
Vcampo:existir
p52
Vcampo:sentir
p53
Vconceito:Deus
p54
tp55
(lp56
S'6. O sentimento \xc3\xadntimo que temos da exist\xc3\xaancia de Deus n\xc3\xa3o poderia ser fruto da educa\xc3\xa7\xc3\xa3o, resultado de ideias adquiridas? Se assim fosse, porque existiria nos vossos selvagens esse sentimento?'
p57
as(g4
Vconceito:Deus
p58
Vconceito:atributo
p59
Vconceito:ideia
p60
tp61
(lp62
g11
as(g26
Vconceito:Deus
p63
tp64
(lp65
S'1. Que \xc3\xa9 Deus? Deus \xc3\xa9 a intelig\xc3\xaancia suprema, causa prim\xc3\xa1ria de todas as coisas.'
p66
as(g4
Vcampo:compreender
p67
Vconceito:Deus
p68
Vconceito:ideia
p69
tp70
(lp71
S'12. Embora n\xc3\xa3o possamos compreender a natureza \xc3\xadntima de Deus, podemos formar ideia de algumas de suas perfei\xc3\xa7\xc3\xb5es? De algumas, sim. O homem as compreende melhor \xc3\xa0 propor\xc3\xa7\xc3\xa3o que se eleva acima da mat\xc3\xa9ria. Entreve-as pelo pensamento.'
p72
as(g26
Vcausa_primaria
p73
tp74
(lp75
g66
as(g4
Vcampo:compreender
p76
Vconceito:Deus
p77
Vconceito:homem
p78
tp79
(lp80
S'10. Pode o homem compreender a natureza \xc3\xadntima de Deus? N\xc3\xa3o; falta-lhe para isso o sentido.'
p81
aS'11. Ser\xc3\xa1 dado um dia ao homem compreender o mist\xc3\xa9rio da Divindade? Quando n\xc3\xa3o mais tiver o esp\xc3\xadrito obscurecido pela mat\xc3\xa9ria. Quando, pela sua perfei\xc3\xa7\xc3\xa3o, se houver aproximado de Deus, ele o ver\xc3\xa1 e compreender\xc3\xa1.'
p82
as(g4
Vcampo:compreender
p83
Vconceito:Deus
p84
tp85
(lp86
g81
ag82
as(g4
Vcausa_primaria
p87
Vconceito:materia
p88
tp89
(lp90
S'7. Poder-se-ia achar nas propriedades \xc3\xadntimas da mat\xc3\xa9ria a causa prim\xc3\xa1ria da forma\xc3\xa7\xc3\xa3o das coisas? Mas, ent\xc3\xa3o, qual seria a causa dessas propriedades? \xc3\x89 indispens\xc3\xa1vel sempre uma causa prim\xc3\xa1ria.'
p91
as(g26
Vcampo:existir
p92
Vcampo:provar
p93
Vconceito:Deus
p94
tp95
(lp96
S'4. Onde se pode encontrar a prova da exist\xc3\xaancia de Deus? Num axioma que aplicais \xc3\xa0s vossas ci\xc3\xaancias. N\xc3\xa3o h\xc3\xa1 efeito sem causa. Procurai a causa de tudo o que n\xc3\xa3o \xc3\xa9 obra do homem e a vossa raz\xc3\xa3o responder\xc3\xa1.'
p97
as(g26
Vconceito:Deus
p98
Vconceito:Deus
p99
Vconceito:panteismo
p100
Vconceito:parte
p101
tp102
(lp103
g30
as(g4
Vcampo:compreender
p104
Vconceito:Deus
p105
Vconceito:homem
p106
Vconceito:ideia
p107
tp108
(lp109
g72
as(g26
Vconceito:Deus
p110
Vconceito:parte
p111
tp112
(lp113
g30
as(g4
Vcampo:combinar
p114
Vconceito:Deus
p115
tp116
(lp117
g16
as(g4
Vcampo:educar
p118
Vcampo:existir
p119
Vconceito:Deus
p120
tp121
(lp122
g57
as(g26
Vcampo:opor
p123
Vconceito:panteismo
p124
tp125
(lp126
S'16. Pretendem os que professam esta doutrina achar nela a demonstra\xc3\xa7\xc3\xa3o de alguns dos atributos de Deus: Sendo infinitos os mundos, Deus \xc3\xa9, por isso mesmo, infinito; n\xc3\xa3o havendo o vazio, ou o nada em parte alguma, Deus est\xc3\xa1 por toda parte; estando Deus em toda parte, pois que tudo \xc3\xa9 parte integrante de Deus, ele d\xc3\xa1 a todos os fen\xc3\xb4menos da Natureza uma raz\xc3\xa3o de ser inteligente. Que se pode opor a este racioc\xc3\xadnio? A raz\xc3\xa3o. Refleti maduramente e n\xc3\xa3o vos ser\xc3\xa1 dif\xc3\xadcil reconhecer-lhe o absurdo.'
p127
as(g26
Vinteligencia_divina
p128
tp129
(lp130
g45
as(g4
Vconceito:Deus
p131
Vconceito:ideia
p132
tp133
(lp134
g72
as(g4
Vcampo:combinar
p135
Vcampo:combinar
p136
Vconceito:Deus
p137
Vconceito:forca
p138
Vconceito:inteligencia
p139
Vconceito:tudo
p140
Vqualidade:distinto
p141
tp142
(lp143
g16
as.